(lp0
(dp1
S'Header'
p2
(dp3
S'TblTimeInto'
p4
(I0
I0
tp5
sS'TimeType'
p6
I12
sS'TableName'
p7
S'Status'
p8
sS'TblInterval'
p9
(I0
I0
tp10
sS'TableSize'
p11
I1
ssS'Signature'
p12
I27849
sS'Fields'
p13
(lp14
(dp15
S'Description'
p16
S''
p17
sS'SubDim'
p18
(lp19
I8
asS'Processing'
p20
g17
sS'ReadOnly'
p21
I1
sS'AliasName'
p22
(lp23
sS'FieldType'
p24
S'ASCII'
p25
sS'BegIdx'
p26
I1
sS'Units'
p27
g17
sS'FieldName'
p28
S'OSversion'
p29
sS'Dimension'
p30
I8
sa(dp31
g16
g17
sg18
(lp32
I10
asg20
g17
sg21
I1
sg22
(lp33
sg24
g25
sg26
I1
sg27
g17
sg28
S'OSDate'
p34
sg30
I10
sa(dp35
g16
g17
sg18
(lp36
I16
asg20
g17
sg21
I1
sg22
(lp37
sg24
g25
sg26
I1
sg27
g17
sg28
S'ProgName'
p38
sg30
I16
sa(dp39
g16
g17
sg18
(lp40
sg20
g17
sg21
I1
sg22
(lp41
sg24
S'UShort'
p42
sg26
I1
sg27
g17
sg28
S'ProgSig'
p43
sg30
I1
sa(dp44
g16
g17
sg18
(lp45
sg20
g17
sg21
I0
sg22
(lp46
sg24
S'IEEE4L'
p47
sg26
I1
sg27
g17
sg28
S'CalOffset'
p48
sg30
I1
sa(dp49
g16
g17
sg18
(lp50
sg20
g17
sg21
I0
sg22
(lp51
sg24
g42
sg26
I1
sg27
g17
sg28
S'PakBusAddress'
p52
sg30
I1
sa(dp53
g16
g17
sg18
(lp54
sg20
g17
sg21
I0
sg22
(lp55
sg24
g42
sg26
I1
sg27
g17
sg28
S'RfInstalled'
p56
sg30
I1
sa(dp57
g16
g17
sg18
(lp58
sg20
g17
sg21
I0
sg22
(lp59
sg24
g42
sg26
I1
sg27
g17
sg28
S'RfNetAddr'
p60
sg30
I1
sa(dp61
g16
g17
sg18
(lp62
sg20
g17
sg21
I0
sg22
(lp63
sg24
g42
sg26
I1
sg27
g17
sg28
S'RfAddress'
p64
sg30
I1
sa(dp65
g16
g17
sg18
(lp66
sg20
g17
sg21
I0
sg22
(lp67
sg24
g42
sg26
I1
sg27
g17
sg28
S'RfHopSeq'
p68
sg30
I1
sa(dp69
g16
g17
sg18
(lp70
I8
asg20
g17
sg21
I0
sg22
(lp71
sg24
g25
sg26
I1
sg27
g17
sg28
S'RfPwrMode'
p72
sg30
I8
sa(dp73
g16
g17
sg18
(lp74
sg20
g17
sg21
I0
sg22
(lp75
sg24
g42
sg26
I1
sg27
g17
sg28
S'Rf_ForceOn'
p76
sg30
I1
sa(dp77
g16
g17
sg18
(lp78
sg20
g17
sg21
I0
sg22
(lp79
sg24
g42
sg26
I1
sg27
g17
sg28
S'Rf_Protocol'
p80
sg30
I1
sa(dp81
g16
g17
sg18
(lp82
sg20
g17
sg21
I0
sg22
(lp83
sg24
g42
sg26
I1
sg27
g17
sg28
S'RfSignalLevel'
p84
sg30
I1
sa(dp85
g16
g17
sg18
(lp86
sg20
g17
sg21
I0
sg22
(lp87
sg24
g42
sg26
I1
sg27
g17
sg28
S'RfRxPakBusCnt'
p88
sg30
I1
sa(dp89
g16
g17
sg18
(lp90
sg20
g17
sg21
I0
sg22
(lp91
sg24
g42
sg26
I1
sg27
g17
sg28
S'VarOutOfBounds'
p92
sg30
I1
sa(dp93
g16
g17
sg18
(lp94
sg20
g17
sg21
I0
sg22
(lp95
sg24
g42
sg26
I1
sg27
g17
sg28
S'SkipScan'
p96
sg30
I1
sa(dp97
g16
g17
sg18
(lp98
sg20
g17
sg21
I0
sg22
(lp99
sg24
g42
sg26
I1
sg27
g17
sg28
S'TrapCode'
p100
sg30
I1
sa(dp101
g16
g17
sg18
(lp102
sg20
g17
sg21
I0
sg22
(lp103
sg24
g42
sg26
I1
sg27
g17
sg28
S'WatchDogCnt'
p104
sg30
I1
sa(dp105
g16
g17
sg18
(lp106
sg20
g17
sg21
I0
sg22
(lp107
sg24
g42
sg26
I1
sg27
g17
sg28
S'ResetTables'
p108
sg30
I1
sa(dp109
g16
g17
sg18
(lp110
sg20
g17
sg21
I0
sg22
(lp111
sg24
g47
sg26
I1
sg27
g17
sg28
S'BattVoltage'
p112
sg30
I1
sasa(dp113
g2
(dp114
g4
(I0
I0
tp115
sg6
I12
sg7
S'Table1'
p116
sg9
(I0
I0
tp117
sg11
I7496
ssg12
I49859
sg13
(lp118
(dp119
g16
g17
sg18
(lp120
I2
asg20
S'Smp'
p121
sg21
I0
sg22
(lp122
sg24
S'IEEE4B'
p123
sg26
I1
sg27
S'%'
p124
sg28
S'RH'
p125
sg30
I1
sa(dp126
g16
g17
sg18
(lp127
sg20
S'Avg'
p128
sg21
I0
sg22
(lp129
sg24
g123
sg26
I1
sg27
S'Deg C'
p130
sg28
S'TdC_Avg'
p131
sg30
I1
sa(dp132
g16
g17
sg18
(lp133
I3
asg20
S'WVc'
p134
sg21
I0
sg22
(lp135
sg24
g123
sg26
I1
sg27
S'meters/sec'
p136
sg28
S'WS_ms_S_WVT'
p137
sg30
I1
sa(dp138
g16
g17
sg18
(lp139
I3
asg20
S'WVc'
p140
sg21
I0
sg22
(lp141
sg24
g123
sg26
I1
sg27
S'meters/sec'
p142
sg28
S'WindDir_D1_WVT'
p143
sg30
I1
sa(dp144
g16
g17
sg18
(lp145
I3
asg20
S'WVc'
p146
sg21
I0
sg22
(lp147
sg24
g123
sg26
I1
sg27
S'meters/sec'
p148
sg28
S'WindDir_SD1_WVT'
p149
sg30
I1
sa(dp150
g16
g17
sg18
(lp151
sg20
S'Max'
p152
sg21
I0
sg22
(lp153
sg24
g123
sg26
I1
sg27
S'meters/sec'
p154
sg28
S'WS_ms_Max'
p155
sg30
I1
sa(dp156
g16
g17
sg18
(lp157
sg20
S'Tot'
p158
sg21
I0
sg22
(lp159
sg24
g123
sg26
I1
sg27
S'mm'
p160
sg28
S'Rain_mm_Tot'
p161
sg30
I1
sa(dp162
g16
g17
sg18
(lp163
sg20
S'Tot'
p164
sg21
I0
sg22
(lp165
sg24
g123
sg26
I1
sg27
S'meters'
p166
sg28
S'WindRun_m_Tot'
p167
sg30
I1
sa(dp168
g16
g17
sg18
(lp169
I2
asg20
S'Avg'
p170
sg21
I0
sg22
(lp171
sg24
g123
sg26
I1
sg27
S'Deg C'
p172
sg28
S'AirTC_Avg'
p173
sg30
I1
sa(dp174
g16
g17
sg18
(lp175
I2
asg20
S'Avg'
p176
sg21
I0
sg22
(lp177
sg24
g123
sg26
I1
sg27
g124
sg28
S'RH_Avg'
p178
sg30
I1
sa(dp179
g16
g17
sg18
(lp180
sg20
S'Avg'
p181
sg21
I0
sg22
(lp182
sg24
g123
sg26
I1
sg27
S'meters/sec'
p183
sg28
S'WS_ms_Avg'
p184
sg30
I1
sa(dp185
g16
g17
sg18
(lp186
sg20
S'Avg'
p187
sg21
I0
sg22
(lp188
sg24
g123
sg26
I1
sg27
S'W/m\xb2'
p189
sg28
S'Solar_W_Avg'
p190
sg30
I1
sa(dp191
g16
g17
sg18
(lp192
sg20
S'ETo'
p193
sg21
I0
sg22
(lp194
sg24
g123
sg26
I1
sg27
g17
sg28
S'ETo'
p195
sg30
I1
sa(dp196
g16
g17
sg18
(lp197
sg20
S'Avg'
p198
sg21
I0
sg22
(lp199
sg24
g123
sg26
I1
sg27
S'mbar'
p200
sg28
S'BP_mBar_Avg'
p201
sg30
I1
sasa(dp202
g2
(dp203
g4
(I0
I0
tp204
sg6
I12
sg7
S'Table2'
p205
sg9
(I0
I0
tp206
sg11
I300
ssg12
I27677
sg13
(lp207
(dp208
g16
g17
sg18
(lp209
sg20
S'Min'
p210
sg21
I0
sg22
(lp211
sg24
g123
sg26
I1
sg27
S'Volts'
p212
sg28
S'Batt_Volt_Min'
p213
sg30
I1
sa(dp214
g16
g17
sg18
(lp215
I2
asg20
S'Max'
p216
sg21
I0
sg22
(lp217
sg24
g123
sg26
I1
sg27
S'Deg C'
p218
sg28
S'AirTC_Max'
p219
sg30
I1
sa(dp220
g16
g17
sg18
(lp221
I2
asg20
S'Min'
p222
sg21
I0
sg22
(lp223
sg24
g123
sg26
I1
sg27
S'Deg C'
p224
sg28
S'AirTC_Min'
p225
sg30
I1
sa(dp226
g16
g17
sg18
(lp227
sg20
S'Avg'
p228
sg21
I0
sg22
(lp229
sg24
g123
sg26
I1
sg27
S'Deg C'
p230
sg28
S'TdC_Avg'
p231
sg30
I1
sa(dp232
g16
g17
sg18
(lp233
sg20
S'Max'
p234
sg21
I0
sg22
(lp235
sg24
g123
sg26
I1
sg27
S'Deg C'
p236
sg28
S'TdC_Max'
p237
sg30
I1
sa(dp238
g16
g17
sg18
(lp239
sg20
S'Min'
p240
sg21
I0
sg22
(lp241
sg24
g123
sg26
I1
sg27
S'Deg C'
p242
sg28
S'TdC_Min'
p243
sg30
I1
sa(dp244
g16
g17
sg18
(lp245
sg20
S'Max'
p246
sg21
I0
sg22
(lp247
sg24
g123
sg26
I1
sg27
S'meters/sec'
p248
sg28
S'WS_ms_Max'
p249
sg30
I1
sa(dp250
g16
g17
sg18
(lp251
sg20
S'Tot'
p252
sg21
I0
sg22
(lp253
sg24
g123
sg26
I1
sg27
S'meters'
p254
sg28
S'WindRun_m_Tot'
p255
sg30
I1
sa(dp256
g16
g17
sg18
(lp257
sg20
S'Tot'
p258
sg21
I0
sg22
(lp259
sg24
g123
sg26
I1
sg27
S'mm'
p260
sg28
S'Rain_mm_Tot'
p261
sg30
I1
sa(dp262
g16
g17
sg18
(lp263
sg20
S'Tot'
p264
sg21
I0
sg22
(lp265
sg24
g123
sg26
I1
sg27
S'kJ/m\xb2'
p266
sg28
S'Solar_kJ_Tot'
p267
sg30
I1
sa(dp268
g16
g17
sg18
(lp269
I2
asg20
S'Avg'
p270
sg21
I0
sg22
(lp271
sg24
g123
sg26
I1
sg27
S'Deg C'
p272
sg28
S'AirTC_Avg'
p273
sg30
I1
sa(dp274
g16
g17
sg18
(lp275
I2
asg20
S'Avg'
p276
sg21
I0
sg22
(lp277
sg24
g123
sg26
I1
sg27
g124
sg28
S'RH_Avg'
p278
sg30
I1
sa(dp279
g16
g17
sg18
(lp280
sg20
S'Avg'
p281
sg21
I0
sg22
(lp282
sg24
g123
sg26
I1
sg27
S'meters/sec'
p283
sg28
S'WS_ms_Avg'
p284
sg30
I1
sa(dp285
g16
g17
sg18
(lp286
sg20
S'Avg'
p287
sg21
I0
sg22
(lp288
sg24
g123
sg26
I1
sg27
S'W/m\xb2'
p289
sg28
S'Solar_W_Avg'
p290
sg30
I1
sa(dp291
g16
g17
sg18
(lp292
sg20
S'ETo'
p293
sg21
I0
sg22
(lp294
sg24
g123
sg26
I1
sg27
g17
sg28
S'ETo'
p295
sg30
I1
sa(dp296
g16
g17
sg18
(lp297
sg20
S'Avg'
p298
sg21
I0
sg22
(lp299
sg24
g123
sg26
I1
sg27
S'mbar'
p300
sg28
S'BP_mBar_Avg'
p301
sg30
I1
sasa(dp302
g2
(dp303
g4
(I0
I0
tp304
sg6
I12
sg7
S'Public'
p305
sg9
(I0
I0
tp306
sg11
I1
ssg12
I47805
sg13
(lp307
(dp308
g16
g17
sg18
(lp309
sg20
g17
sg21
I0
sg22
(lp310
sg24
g123
sg26
I1
sg27
S'Volts'
p311
sg28
S'Batt_Volt'
p312
sg30
I1
sa(dp313
g16
g17
sg18
(lp314
I2
asg20
g17
sg21
I0
sg22
(lp315
sg24
g123
sg26
I1
sg27
S'Deg C'
p316
sg28
S'AirTC'
p317
sg30
I1
sa(dp318
g16
g17
sg18
(lp319
I2
asg20
g17
sg21
I0
sg22
(lp320
sg24
g123
sg26
I1
sg27
g124
sg28
S'RH'
p321
sg30
I1
sa(dp322
g16
g17
sg18
(lp323
sg20
g17
sg21
I0
sg22
(lp324
sg24
g123
sg26
I1
sg27
S'meters/sec'
p325
sg28
S'WS_ms'
p326
sg30
I1
sa(dp327
g16
g17
sg18
(lp328
sg20
g17
sg21
I0
sg22
(lp329
sg24
g123
sg26
I1
sg27
S'Degrees'
p330
sg28
S'WindDir'
p331
sg30
I1
sa(dp332
g16
g17
sg18
(lp333
sg20
g17
sg21
I0
sg22
(lp334
sg24
g123
sg26
I1
sg27
S'mm'
p335
sg28
S'Rain_mm'
p336
sg30
I1
sa(dp337
g16
g17
sg18
(lp338
sg20
g17
sg21
I0
sg22
(lp339
sg24
g123
sg26
I1
sg27
S'W/m\xb2'
p340
sg28
S'Solar_W'
p341
sg30
I1
sa(dp342
g16
g17
sg18
(lp343
sg20
g17
sg21
I0
sg22
(lp344
sg24
g123
sg26
I1
sg27
S'kJ/m\xb2'
p345
sg28
S'Solar_kJ'
p346
sg30
I1
sa(dp347
g16
g17
sg18
(lp348
sg20
g17
sg21
I0
sg22
(lp349
sg24
g123
sg26
I1
sg27
S'meters'
p350
sg28
S'WindRun_m'
p351
sg30
I1
sa(dp352
g16
g17
sg18
(lp353
sg20
g17
sg21
I0
sg22
(lp354
sg24
g123
sg26
I1
sg27
S'Deg C'
p355
sg28
S'TdC'
p356
sg30
I1
sasa.